; Function Attrs: nounwind uwtable
define hidden ptr @mi_rezalloc_aligned(ptr noundef %0, i64 noundef %1, i64 noundef %2) local_unnamed_addr #0 {
  %4 = tail call align 8 ptr @llvm.threadlocal.address.p0(ptr align 8 @_mi_heap_default)
  %5 = load ptr, ptr %4, align 8, !tbaa !17
  %6 = icmp ult i64 %2, 9
  br i1 %6, label %7, label %9

7:                                                ; preds = %3
  %8 = tail call ptr @_mi_heap_realloc_zero(ptr noundef %5, ptr noundef %0, i64 noundef %1, i1 noundef zeroext true) #8
  br label %mi_heap_rezalloc_aligned.exit

9:                                                ; preds = %3
  %10 = ptrtoint ptr %0 to i64
  %11 = urem i64 %10, %2
  %12 = tail call fastcc ptr @mi_heap_realloc_zero_aligned_at(ptr noundef %5, ptr noundef %0, i64 noundef %1, i64 noundef %2, i64 noundef %11, i1 noundef zeroext true) #9
  br label %mi_heap_rezalloc_aligned.exit

mi_heap_rezalloc_aligned.exit:                    ; preds = %7, %9
  %.0.i.i = phi ptr [ %8, %7 ], [ %12, %9 ]
  ret ptr %.0.i.i
}